; Function Attrs: nounwind uwtable
define i32 @PKCS12_SAFEBAG_get_bag_nid(ptr noundef readonly captures(none) %0) local_unnamed_addr #0 {
  %2 = load ptr, ptr %0, align 8, !tbaa !10
  %3 = tail call i32 @OBJ_obj2nid(ptr noundef %2) #4
  %4 = add i32 %3, -155
  %or.cond3 = icmp ult i32 %4, -3
  br i1 %or.cond3, label %10, label %5

5:                                                ; preds = %1
  %6 = getelementptr inbounds nuw i8, ptr %0, i64 8
  %7 = load ptr, ptr %6, align 8, !tbaa !11
  %8 = load ptr, ptr %7, align 8, !tbaa !12
  %9 = tail call i32 @OBJ_obj2nid(ptr noundef %8) #4
  br label %10

10:                                               ; preds = %1, %5
  %.0 = phi i32 [ %9, %5 ], [ -1, %1 ]
  ret i32 %.0
}